; Function Attrs: mustprogress nofree nounwind willreturn memory(read, inaccessiblemem: none) uwtable
define hidden noundef i64 @_ZN3ue216maxStringOverlapERKNS_11ue2_literalES2_(ptr noundef nonnull readonly align 8 captures(none) dereferenceable(64) %0, ptr noundef nonnull readonly align 8 captures(none) dereferenceable(64) %1) local_unnamed_addr #2 {
  %3 = getelementptr inbounds nuw i8, ptr %0, i64 32
  %4 = getelementptr inbounds nuw i8, ptr %0, i64 40
  %5 = load ptr, ptr %4, align 8
  %6 = load ptr, ptr %3, align 8
  %.not78.not.i.i = icmp eq ptr %5, %6
  br i1 %.not78.not.i.i, label %.loopexit, label %.lr.ph.preheader.i.i

.lr.ph.preheader.i.i:                             ; preds = %2
  %7 = ptrtoint ptr %5 to i64
  %8 = ptrtoint ptr %6 to i64
  %9 = sub i64 %7, %8
  %10 = ashr exact i64 %9, 3
  %umax.i.i = tail call i64 @llvm.umax.i64(i64 %10, i64 1)
  br label %.lr.ph.i.i

11:                                               ; preds = %.lr.ph.i.i
  %12 = add nuw i64 %.059.i.i, 1
  %exitcond.not.i.i = icmp eq i64 %12, %umax.i.i
  br i1 %exitcond.not.i.i, label %.loopexit, label %.lr.ph.i.i, !llvm.loop !9

.lr.ph.i.i:                                       ; preds = %11, %.lr.ph.preheader.i.i
  %.059.i.i = phi i64 [ %12, %11 ], [ 0, %.lr.ph.preheader.i.i ]
  %13 = getelementptr inbounds nuw i64, ptr %6, i64 %.059.i.i
  %14 = load i64, ptr %13, align 8
  %.not.not.i.not.i = icmp eq i64 %14, 0
  br i1 %.not.not.i.not.i, label %11, label %_ZNK3ue211ue2_literal10any_nocaseEv.exit

.loopexit:                                        ; preds = %11, %2
  %15 = getelementptr inbounds nuw i8, ptr %1, i64 32
  %16 = getelementptr inbounds nuw i8, ptr %1, i64 40
  %17 = load ptr, ptr %16, align 8
  %18 = load ptr, ptr %15, align 8
  %.not78.not.i.i4 = icmp eq ptr %17, %18
  br i1 %.not78.not.i.i4, label %_ZNK3ue211ue2_literal10any_nocaseEv.exit, label %.lr.ph.preheader.i.i5

.lr.ph.preheader.i.i5:                            ; preds = %.loopexit
  %19 = ptrtoint ptr %17 to i64
  %20 = ptrtoint ptr %18 to i64
  %21 = sub i64 %19, %20
  %22 = ashr exact i64 %21, 3
  %umax.i.i6 = tail call i64 @llvm.umax.i64(i64 %22, i64 1)
  br label %.lr.ph.i.i7

.lr.ph.i.i7:                                      ; preds = %.lr.ph.i.i7, %.lr.ph.preheader.i.i5
  %.059.i.i8 = phi i64 [ 0, %.lr.ph.preheader.i.i5 ], [ %25, %.lr.ph.i.i7 ]
  %23 = getelementptr inbounds nuw i64, ptr %18, i64 %.059.i.i8
  %24 = load i64, ptr %23, align 8
  %.not.not.i.not.i9.not = icmp ne i64 %24, 0
  %25 = add nuw i64 %.059.i.i8, 1
  %exitcond.not.i.i11 = icmp eq i64 %25, %umax.i.i6
  %or.cond = select i1 %.not.not.i.not.i9.not, i1 true, i1 %exitcond.not.i.i11
  br i1 %or.cond, label %_ZNK3ue211ue2_literal10any_nocaseEv.exit, label %.lr.ph.i.i7, !llvm.loop !9

_ZNK3ue211ue2_literal10any_nocaseEv.exit:         ; preds = %.lr.ph.i.i, %.lr.ph.i.i7, %.loopexit
  %26 = phi i1 [ false, %.loopexit ], [ %.not.not.i.not.i9.not, %.lr.ph.i.i7 ], [ true, %.lr.ph.i.i ]
  %27 = tail call noundef i64 @_ZN3ue216maxStringOverlapERKNSt7__cxx1112basic_stringIcSt11char_traitsIcESaIcEEES7_b(ptr noundef nonnull align 8 dereferenceable(32) %0, ptr noundef nonnull align 8 dereferenceable(32) %1, i1 noundef zeroext %26)
  ret i64 %27
}